; ModuleID = '20/649.c'
source_filename = "20/649.c"
target datalayout = "e-m:e-p270:32:32-p271:32:32-p272:64:64-i64:64-f80:128-n8:16:32:64-S128"
target triple = "x86_64-pc-linux-gnu"

@.str = private unnamed_addr constant [6 x i8] c"%s %s\00", align 1
@.str.1 = private unnamed_addr constant [3 x i8] c"%c\00", align 1
@.str.2 = private unnamed_addr constant [2 x i8] c"\0A\00", align 1

; Function Attrs: noinline nounwind uwtable
define dso_local i32 @main() #0 {
  %1 = alloca i32, align 4
  %2 = alloca [100 x i8*], align 16
  %3 = alloca [100 x i8*], align 16
  %4 = alloca i32, align 4
  store i32 0, i32* %1, align 4
  store i32 0, i32* %4, align 4
  br label %5

5:                                                ; preds = %17, %0
  %6 = load i32, i32* %4, align 4
  %7 = icmp slt i32 %6, 100
  br i1 %7, label %8, label %20

8:                                                ; preds = %5
  %9 = call noalias i8* @malloc(i64 10) #4
  %10 = load i32, i32* %4, align 4
  %11 = sext i32 %10 to i64
  %12 = getelementptr inbounds [100 x i8*], [100 x i8*]* %2, i64 0, i64 %11
  store i8* %9, i8** %12, align 8
  %13 = call noalias i8* @malloc(i64 5) #4
  %14 = load i32, i32* %4, align 4
  %15 = sext i32 %14 to i64
  %16 = getelementptr inbounds [100 x i8*], [100 x i8*]* %3, i64 0, i64 %15
  store i8* %13, i8** %16, align 8
  br label %17

17:                                               ; preds = %8
  %18 = load i32, i32* %4, align 4
  %19 = add nsw i32 %18, 1
  store i32 %19, i32* %4, align 4
  br label %5

20:                                               ; preds = %5
  %21 = getelementptr inbounds [100 x i8*], [100 x i8*]* %2, i64 0, i64 0
  %22 = getelementptr inbounds [100 x i8*], [100 x i8*]* %3, i64 0, i64 0
  call void @sc(i8** %21, i8** %22)
  %23 = load i32, i32* %1, align 4
  ret i32 %23
}

; Function Attrs: nounwind
declare dso_local noalias i8* @malloc(i64) #1

; Function Attrs: noinline nounwind uwtable
define dso_local void @sc(i8** %0, i8** %1) #0 {
  %3 = alloca i8**, align 8
  %4 = alloca i8**, align 8
  %5 = alloca i32, align 4
  %6 = alloca i32, align 4
  %7 = alloca i32, align 4
  %8 = alloca i32, align 4
  %9 = alloca i32, align 4
  %10 = alloca i32, align 4
  store i8** %0, i8*** %3, align 8
  store i8** %1, i8*** %4, align 8
  store i32 0, i32* %10, align 4
  br label %11

11:                                               ; preds = %179, %2
  %12 = load i8**, i8*** %3, align 8
  %13 = load i32, i32* %10, align 4
  %14 = sext i32 %13 to i64
  %15 = getelementptr inbounds i8*, i8** %12, i64 %14
  %16 = load i8*, i8** %15, align 8
  %17 = load i8**, i8*** %4, align 8
  %18 = load i32, i32* %10, align 4
  %19 = sext i32 %18 to i64
  %20 = getelementptr inbounds i8*, i8** %17, i64 %19
  %21 = load i8*, i8** %20, align 8
  %22 = call i32 (i8*, ...) @__isoc99_scanf(i8* getelementptr inbounds ([6 x i8], [6 x i8]* @.str, i64 0, i64 0), i8* %16, i8* %21)
  %23 = icmp ne i32 %22, -1
  br i1 %23, label %24, label %182

24:                                               ; preds = %11
  %25 = load i8**, i8*** %3, align 8
  %26 = load i32, i32* %10, align 4
  %27 = sext i32 %26 to i64
  %28 = getelementptr inbounds i8*, i8** %25, i64 %27
  %29 = load i8*, i8** %28, align 8
  %30 = call i64 @strlen(i8* %29) #5
  %31 = trunc i64 %30 to i32
  store i32 %31, i32* %5, align 4
  %32 = load i8**, i8*** %4, align 8
  %33 = load i32, i32* %10, align 4
  %34 = sext i32 %33 to i64
  %35 = getelementptr inbounds i8*, i8** %32, i64 %34
  %36 = load i8*, i8** %35, align 8
  %37 = call i64 @strlen(i8* %36) #5
  %38 = trunc i64 %37 to i32
  store i32 %38, i32* %6, align 4
  store i32 1, i32* %7, align 4
  %39 = load i8**, i8*** %3, align 8
  %40 = load i32, i32* %10, align 4
  %41 = sext i32 %40 to i64
  %42 = getelementptr inbounds i8*, i8** %39, i64 %41
  %43 = load i8*, i8** %42, align 8
  %44 = load i8, i8* %43, align 1
  %45 = sext i8 %44 to i32
  store i32 %45, i32* %8, align 4
  br label %46

46:                                               ; preds = %76, %24
  %47 = load i32, i32* %7, align 4
  %48 = load i32, i32* %5, align 4
  %49 = icmp slt i32 %47, %48
  br i1 %49, label %50, label %79

50:                                               ; preds = %46
  %51 = load i8**, i8*** %3, align 8
  %52 = load i32, i32* %10, align 4
  %53 = sext i32 %52 to i64
  %54 = getelementptr inbounds i8*, i8** %51, i64 %53
  %55 = load i8*, i8** %54, align 8
  %56 = load i32, i32* %7, align 4
  %57 = sext i32 %56 to i64
  %58 = getelementptr inbounds i8, i8* %55, i64 %57
  %59 = load i8, i8* %58, align 1
  %60 = sext i8 %59 to i32
  %61 = load i32, i32* %8, align 4
  %62 = icmp sgt i32 %60, %61
  br i1 %62, label %63, label %75

63:                                               ; preds = %50
  %64 = load i8**, i8*** %3, align 8
  %65 = load i32, i32* %10, align 4
  %66 = sext i32 %65 to i64
  %67 = getelementptr inbounds i8*, i8** %64, i64 %66
  %68 = load i8*, i8** %67, align 8
  %69 = load i32, i32* %7, align 4
  %70 = sext i32 %69 to i64
  %71 = getelementptr inbounds i8, i8* %68, i64 %70
  %72 = load i8, i8* %71, align 1
  %73 = sext i8 %72 to i32
  store i32 %73, i32* %8, align 4
  %74 = load i32, i32* %7, align 4
  store i32 %74, i32* %9, align 4
  br label %75

75:                                               ; preds = %63, %50
  br label %76

76:                                               ; preds = %75
  %77 = load i32, i32* %7, align 4
  %78 = add nsw i32 %77, 1
  store i32 %78, i32* %7, align 4
  br label %46

79:                                               ; preds = %46
  %80 = load i32, i32* %5, align 4
  %81 = load i32, i32* %9, align 4
  %82 = sub nsw i32 %80, %81
  %83 = sub nsw i32 %82, 1
  store i32 %83, i32* %7, align 4
  br label %84

84:                                               ; preds = %114, %79
  %85 = load i32, i32* %7, align 4
  %86 = icmp sge i32 %85, 1
  br i1 %86, label %87, label %117

87:                                               ; preds = %84
  %88 = load i8**, i8*** %3, align 8
  %89 = load i32, i32* %10, align 4
  %90 = sext i32 %89 to i64
  %91 = getelementptr inbounds i8*, i8** %88, i64 %90
  %92 = load i8*, i8** %91, align 8
  %93 = load i32, i32* %9, align 4
  %94 = sext i32 %93 to i64
  %95 = getelementptr inbounds i8, i8* %92, i64 %94
  %96 = load i32, i32* %7, align 4
  %97 = sext i32 %96 to i64
  %98 = getelementptr inbounds i8, i8* %95, i64 %97
  %99 = load i8, i8* %98, align 1
  %100 = load i8**, i8*** %3, align 8
  %101 = load i32, i32* %10, align 4
  %102 = sext i32 %101 to i64
  %103 = getelementptr inbounds i8*, i8** %100, i64 %102
  %104 = load i8*, i8** %103, align 8
  %105 = load i32, i32* %9, align 4
  %106 = sext i32 %105 to i64
  %107 = getelementptr inbounds i8, i8* %104, i64 %106
  %108 = load i32, i32* %7, align 4
  %109 = sext i32 %108 to i64
  %110 = getelementptr inbounds i8, i8* %107, i64 %109
  %111 = load i32, i32* %6, align 4
  %112 = sext i32 %111 to i64
  %113 = getelementptr inbounds i8, i8* %110, i64 %112
  store i8 %99, i8* %113, align 1
  br label %114

114:                                              ; preds = %87
  %115 = load i32, i32* %7, align 4
  %116 = add nsw i32 %115, -1
  store i32 %116, i32* %7, align 4
  br label %84

117:                                              ; preds = %84
  store i32 0, i32* %7, align 4
  br label %118

118:                                              ; preds = %144, %117
  %119 = load i32, i32* %7, align 4
  %120 = load i32, i32* %6, align 4
  %121 = icmp slt i32 %119, %120
  br i1 %121, label %122, label %147

122:                                              ; preds = %118
  %123 = load i8**, i8*** %4, align 8
  %124 = load i32, i32* %10, align 4
  %125 = sext i32 %124 to i64
  %126 = getelementptr inbounds i8*, i8** %123, i64 %125
  %127 = load i8*, i8** %126, align 8
  %128 = load i32, i32* %7, align 4
  %129 = sext i32 %128 to i64
  %130 = getelementptr inbounds i8, i8* %127, i64 %129
  %131 = load i8, i8* %130, align 1
  %132 = load i8**, i8*** %3, align 8
  %133 = load i32, i32* %10, align 4
  %134 = sext i32 %133 to i64
  %135 = getelementptr inbounds i8*, i8** %132, i64 %134
  %136 = load i8*, i8** %135, align 8
  %137 = load i32, i32* %9, align 4
  %138 = sext i32 %137 to i64
  %139 = getelementptr inbounds i8, i8* %136, i64 %138
  %140 = load i32, i32* %7, align 4
  %141 = sext i32 %140 to i64
  %142 = getelementptr inbounds i8, i8* %139, i64 %141
  %143 = getelementptr inbounds i8, i8* %142, i64 1
  store i8 %131, i8* %143, align 1
  br label %144

144:                                              ; preds = %122
  %145 = load i32, i32* %7, align 4
  %146 = add nsw i32 %145, 1
  store i32 %146, i32* %7, align 4
  br label %118

147:                                              ; preds = %118
  store i32 0, i32* %7, align 4
  br label %148

148:                                              ; preds = %175, %147
  %149 = load i32, i32* %7, align 4
  %150 = load i32, i32* %6, align 4
  %151 = load i32, i32* %5, align 4
  %152 = add nsw i32 %150, %151
  %153 = icmp slt i32 %149, %152
  br i1 %153, label %154, label %178

154:                                              ; preds = %148
  %155 = load i8**, i8*** %3, align 8
  %156 = load i32, i32* %10, align 4
  %157 = sext i32 %156 to i64
  %158 = getelementptr inbounds i8*, i8** %155, i64 %157
  %159 = load i8*, i8** %158, align 8
  %160 = load i32, i32* %7, align 4
  %161 = sext i32 %160 to i64
  %162 = getelementptr inbounds i8, i8* %159, i64 %161
  %163 = load i8, i8* %162, align 1
  %164 = sext i8 %163 to i32
  %165 = call i32 (i8*, ...) @printf(i8* getelementptr inbounds ([3 x i8], [3 x i8]* @.str.1, i64 0, i64 0), i32 %164)
  %166 = load i32, i32* %7, align 4
  %167 = load i32, i32* %5, align 4
  %168 = load i32, i32* %6, align 4
  %169 = add nsw i32 %167, %168
  %170 = sub nsw i32 %169, 1
  %171 = icmp eq i32 %166, %170
  br i1 %171, label %172, label %174

172:                                              ; preds = %154
  %173 = call i32 (i8*, ...) @printf(i8* getelementptr inbounds ([2 x i8], [2 x i8]* @.str.2, i64 0, i64 0))
  br label %174

174:                                              ; preds = %172, %154
  br label %175

175:                                              ; preds = %174
  %176 = load i32, i32* %7, align 4
  %177 = add nsw i32 %176, 1
  store i32 %177, i32* %7, align 4
  br label %148

178:                                              ; preds = %148
  br label %179

179:                                              ; preds = %178
  %180 = load i32, i32* %10, align 4
  %181 = add nsw i32 %180, 1
  store i32 %181, i32* %10, align 4
  br label %11

182:                                              ; preds = %11
  ret void
}

declare dso_local i32 @__isoc99_scanf(i8*, ...) #2

; Function Attrs: nounwind readonly
declare dso_local i64 @strlen(i8*) #3

declare dso_local i32 @printf(i8*, ...) #2


!llvm.module.flags = !{!0}
!llvm.ident = !{!1}

!0 = !{i32 1, !"wchar_size", i32 4}
!1 = !{!"clang version 10.0.0-4ubuntu1 "}
